target datalayout = "e-m:e-p270:32:32-p271:32:32-p272:64:64-i64:64-i128:128-f80:128-n8:16:32:64-S128"
target triple = "x86_64-pc-linux-gnu"

%"struct.Luau::AstName" = type { ptr }
%"class.Luau::AstNode.base" = type <{ ptr, i32, %"struct.Luau::Location" }>
%"struct.Luau::Location" = type { %"struct.Luau::Position", %"struct.Luau::Position" }
%"struct.Luau::Position" = type { i32, i32 }
%"class.std::optional.83" = type { %"struct.std::_Optional_base.84" }
%"struct.std::_Optional_base.84" = type { %"struct.std::_Optional_payload.86" }
%"struct.std::_Optional_payload.86" = type { %"struct.std::_Optional_payload_base.base.88", [3 x i8] }
%"struct.std::_Optional_payload_base.base.88" = type <{ %"union.std::_Optional_payload_base<Luau::Location>::_Storage", i8 }>
%"union.std::_Optional_payload_base<Luau::Location>::_Storage" = type { %"struct.Luau::Location" }
%"class.std::optional.93" = type { %"struct.std::_Optional_base.94" }
%"struct.std::_Optional_base.94" = type { %"struct.std::_Optional_payload.96" }
%"struct.std::_Optional_payload.96" = type { %"struct.std::_Optional_payload_base.base.98", [7 x i8] }
%"struct.std::_Optional_payload_base.base.98" = type <{ %"union.std::_Optional_payload_base<Luau::AstName>::_Storage", i8 }>
%"union.std::_Optional_payload_base<Luau::AstName>::_Storage" = type { %"struct.Luau::AstName" }
%"class.Luau::AstType.base" = type { %"class.Luau::AstNode.base" }
%"struct.Luau::AstTypeOrPack" = type { ptr, ptr }
%"class.Luau::AstTypeReference" = type { %"class.Luau::AstType.base", i8, [3 x i8], %"class.std::optional.93", %"class.std::optional.83", %"struct.Luau::AstName", %"struct.Luau::Location", %"struct.Luau::AstArray.123" }
%"struct.Luau::AstArray.123" = type { ptr, i64 }

; Function Attrs: mustprogress nounwind uwtable
define linkonce_odr dso_local noundef ptr @_ZNK4Luau8AstArrayINS_13AstTypeOrPackEE3endEv(ptr noundef nonnull align 8 dereferenceable(16) %0) #4 comdat align 2 {
  %2 = alloca ptr, align 8
  store ptr %0, ptr %2, align 8, !tbaa !584
  %3 = load ptr, ptr %2, align 8
  %4 = getelementptr inbounds nuw %"struct.Luau::AstArray.123", ptr %3, i32 0, i32 0
  %5 = load ptr, ptr %4, align 8, !tbaa !608
  %6 = getelementptr inbounds nuw %"struct.Luau::AstArray.123", ptr %3, i32 0, i32 1
  %7 = load i64, ptr %6, align 8, !tbaa !610
  %8 = getelementptr inbounds nuw %"struct.Luau::AstTypeOrPack", ptr %5, i64 %7
  ret ptr %8
}

; Function Attrs: mustprogress nounwind uwtable
define linkonce_odr dso_local noundef ptr @_ZNK4Luau8AstArrayINS_13AstTypeOrPackEE5beginEv(ptr noundef nonnull align 8 dereferenceable(16) %0) #4 comdat align 2 {
  %2 = alloca ptr, align 8
  store ptr %0, ptr %2, align 8, !tbaa !584
  %3 = load ptr, ptr %2, align 8
  %4 = getelementptr inbounds nuw %"struct.Luau::AstArray.123", ptr %3, i32 0, i32 0
  %5 = load ptr, ptr %4, align 8, !tbaa !608
  ret ptr %5
}

; Function Attrs: mustprogress uwtable
define dso_local void @_ZN4Luau20DataFlowGraphBuilder9visitTypeEPNS_16AstTypeReferenceE(ptr noundef nonnull align 8 dereferenceable(336) %0, ptr noundef %1) #2 align 2 {
  %3 = alloca ptr, align 8
  %4 = alloca ptr, align 8
  %5 = alloca ptr, align 8
  %6 = alloca ptr, align 8
  %7 = alloca ptr, align 8
  %8 = alloca %"struct.Luau::AstTypeOrPack", align 8
  store ptr %0, ptr %3, align 8, !tbaa !154
  store ptr %1, ptr %4, align 8, !tbaa !428
  %9 = load ptr, ptr %3, align 8
  call void @llvm.lifetime.start.p0(i64 8, ptr %5) #17
  %10 = load ptr, ptr %4, align 8, !tbaa !428
  %11 = getelementptr inbounds nuw %"class.Luau::AstTypeReference", ptr %10, i32 0, i32 7
  store ptr %11, ptr %5, align 8, !tbaa !584
  call void @llvm.lifetime.start.p0(i64 8, ptr %6) #17
  %12 = load ptr, ptr %5, align 8, !tbaa !584
  %13 = call noundef ptr @_ZNK4Luau8AstArrayINS_13AstTypeOrPackEE5beginEv(ptr noundef nonnull align 8 dereferenceable(16) %12)
  store ptr %13, ptr %6, align 8, !tbaa !586
  call void @llvm.lifetime.start.p0(i64 8, ptr %7) #17
  %14 = load ptr, ptr %5, align 8, !tbaa !584
  %15 = call noundef ptr @_ZNK4Luau8AstArrayINS_13AstTypeOrPackEE3endEv(ptr noundef nonnull align 8 dereferenceable(16) %14)
  store ptr %15, ptr %7, align 8, !tbaa !586
  br label %16

16:                                               ; preds = %33, %2
  %17 = load ptr, ptr %6, align 8, !tbaa !586
  %18 = load ptr, ptr %7, align 8, !tbaa !586
  %19 = icmp ne ptr %17, %18
  br i1 %19, label %21, label %20

20:                                               ; preds = %16
  call void @llvm.lifetime.end.p0(i64 8, ptr %7) #17
  call void @llvm.lifetime.end.p0(i64 8, ptr %6) #17
  call void @llvm.lifetime.end.p0(i64 8, ptr %5) #17
  br label %36

21:                                               ; preds = %16
  call void @llvm.lifetime.start.p0(i64 16, ptr %8) #17
  %22 = load ptr, ptr %6, align 8, !tbaa !586
  call void @llvm.memcpy.p0.p0.i64(ptr align 8 %8, ptr align 8 %22, i64 16, i1 false), !tbaa.struct !588
  %23 = getelementptr inbounds nuw %"struct.Luau::AstTypeOrPack", ptr %8, i32 0, i32 0
  %24 = load ptr, ptr %23, align 8, !tbaa !589
  %25 = icmp ne ptr %24, null
  br i1 %25, label %26, label %29

26:                                               ; preds = %21
  %27 = getelementptr inbounds nuw %"struct.Luau::AstTypeOrPack", ptr %8, i32 0, i32 0
  %28 = load ptr, ptr %27, align 8, !tbaa !589
  call void @_ZN4Luau20DataFlowGraphBuilder9visitTypeEPNS_7AstTypeE(ptr noundef nonnull align 8 dereferenceable(336) %9, ptr noundef %28)
  br label %32

29:                                               ; preds = %21
  %30 = getelementptr inbounds nuw %"struct.Luau::AstTypeOrPack", ptr %8, i32 0, i32 1
  %31 = load ptr, ptr %30, align 8, !tbaa !591
  call void @_ZN4Luau20DataFlowGraphBuilder13visitTypePackEPNS_11AstTypePackE(ptr noundef nonnull align 8 dereferenceable(336) %9, ptr noundef %31)
  br label %32

32:                                               ; preds = %29, %26
  call void @llvm.lifetime.end.p0(i64 16, ptr %8) #17
  br label %33

33:                                               ; preds = %32
  %34 = load ptr, ptr %6, align 8, !tbaa !586
  %35 = getelementptr inbounds nuw %"struct.Luau::AstTypeOrPack", ptr %34, i32 1
  store ptr %35, ptr %6, align 8, !tbaa !586
  br label %16

36:                                               ; preds = %20
  ret void
}