; Function Attrs: mustprogress uwtable
define dso_local void @_ZN4Luau20DataFlowGraphBuilder9visitTypeEPNS_16AstTypeReferenceE(ptr noundef nonnull align 8 dereferenceable(336) %0, ptr noundef readonly captures(none) %1) local_unnamed_addr #2 align 2 {
  %3 = getelementptr inbounds nuw i8, ptr %1, i64 96
  %4 = load ptr, ptr %3, align 8, !tbaa !388
  %5 = getelementptr inbounds nuw i8, ptr %1, i64 104
  %6 = load i64, ptr %5, align 8, !tbaa !391
  %7 = getelementptr inbounds nuw %"struct.Luau::AstTypeOrPack", ptr %4, i64 %6
  %.not10 = icmp eq i64 %6, 0
  br i1 %.not10, label %._crit_edge, label %.lr.ph

._crit_edge:                                      ; preds = %10, %2
  ret void

.lr.ph:                                           ; preds = %2, %10
  %.011 = phi ptr [ %11, %10 ], [ %4, %2 ]
  %.sroa.0.0.copyload = load ptr, ptr %.011, align 8, !tbaa !381
  %.not9 = icmp eq ptr %.sroa.0.0.copyload, null
  br i1 %.not9, label %9, label %8

8:                                                ; preds = %.lr.ph
  tail call void @_ZN4Luau20DataFlowGraphBuilder9visitTypeEPNS_7AstTypeE(ptr noundef nonnull align 8 dereferenceable(336) %0, ptr noundef nonnull %.sroa.0.0.copyload)
  br label %10

9:                                                ; preds = %.lr.ph
  %.sroa.5.0..sroa_idx = getelementptr inbounds nuw i8, ptr %.011, i64 8
  %.sroa.5.0.copyload = load ptr, ptr %.sroa.5.0..sroa_idx, align 8, !tbaa !380
  tail call void @_ZN4Luau20DataFlowGraphBuilder13visitTypePackEPNS_11AstTypePackE(ptr noundef nonnull align 8 dereferenceable(336) %0, ptr noundef %.sroa.5.0.copyload)
  br label %10

10:                                               ; preds = %9, %8
  %11 = getelementptr inbounds nuw i8, ptr %.011, i64 16
  %.not = icmp eq ptr %11, %7
  br i1 %.not, label %._crit_edge, label %.lr.ph
}